; Function Attrs: nounwind uwtable
define hidden void @lj_trace_freestate(ptr noundef %0) local_unnamed_addr #2 {
  %2 = getelementptr inbounds nuw i8, ptr %0, i64 736
  tail call void @lj_mcode_free(ptr noundef nonnull %2) #14
  %3 = getelementptr inbounds nuw i8, ptr %0, i64 1096
  %4 = load ptr, ptr %3, align 8, !tbaa !76
  %5 = getelementptr inbounds nuw i8, ptr %0, i64 1104
  %6 = load i32, ptr %5, align 8, !tbaa !77
  %7 = zext i32 %6 to i64
  %8 = shl nuw nsw i64 %7, 2
  %9 = getelementptr inbounds nuw i8, ptr %0, i64 16
  %10 = load i64, ptr %9, align 8, !tbaa !42
  %11 = sub i64 %10, %8
  store i64 %11, ptr %9, align 8, !tbaa !42
  %12 = load ptr, ptr %0, align 8, !tbaa !51
  %13 = getelementptr inbounds nuw i8, ptr %0, i64 8
  %14 = load ptr, ptr %13, align 8, !tbaa !52
  %15 = tail call ptr %12(ptr noundef %14, ptr noundef %4, i64 noundef range(i64 0, 51540394081) %8, i64 noundef 0) #14
  %16 = getelementptr inbounds nuw i8, ptr %0, i64 1088
  %17 = load ptr, ptr %16, align 8, !tbaa !78
  %18 = getelementptr inbounds nuw i8, ptr %0, i64 1084
  %19 = load i32, ptr %18, align 4, !tbaa !79
  %20 = zext i32 %19 to i64
  %21 = mul nuw nsw i64 %20, 12
  %22 = load i64, ptr %9, align 8, !tbaa !42
  %23 = sub i64 %22, %21
  store i64 %23, ptr %9, align 8, !tbaa !42
  %24 = load ptr, ptr %0, align 8, !tbaa !51
  %25 = load ptr, ptr %13, align 8, !tbaa !52
  %26 = tail call ptr %24(ptr noundef %25, ptr noundef %17, i64 noundef range(i64 0, 51540394081) %21, i64 noundef 0) #14
  %27 = getelementptr inbounds nuw i8, ptr %0, i64 1064
  %28 = load ptr, ptr %27, align 8, !tbaa !80
  %29 = getelementptr inbounds nuw i8, ptr %0, i64 1076
  %30 = load i32, ptr %29, align 4, !tbaa !81
  %31 = zext i32 %30 to i64
  %32 = getelementptr inbounds nuw %union.IRIns, ptr %28, i64 %31
  %33 = getelementptr inbounds nuw i8, ptr %0, i64 1072
  %34 = load i32, ptr %33, align 8, !tbaa !82
  %35 = sub i32 %34, %30
  %36 = zext i32 %35 to i64
  %37 = shl nuw nsw i64 %36, 3
  %38 = load i64, ptr %9, align 8, !tbaa !42
  %39 = sub i64 %38, %37
  store i64 %39, ptr %9, align 8, !tbaa !42
  %40 = load ptr, ptr %0, align 8, !tbaa !51
  %41 = load ptr, ptr %13, align 8, !tbaa !52
  %42 = tail call ptr %40(ptr noundef %41, ptr noundef %32, i64 noundef range(i64 0, 51540394081) %37, i64 noundef 0) #14
  %43 = getelementptr inbounds nuw i8, ptr %0, i64 1120
  %44 = load ptr, ptr %43, align 8, !tbaa !40
  %45 = getelementptr inbounds nuw i8, ptr %0, i64 1132
  %46 = load i32, ptr %45, align 4, !tbaa !59
  %47 = zext i32 %46 to i64
  %48 = shl nuw nsw i64 %47, 3
  %49 = load i64, ptr %9, align 8, !tbaa !42
  %50 = sub i64 %49, %48
  store i64 %50, ptr %9, align 8, !tbaa !42
  %51 = load ptr, ptr %0, align 8, !tbaa !51
  %52 = load ptr, ptr %13, align 8, !tbaa !52
  %53 = tail call ptr %51(ptr noundef %52, ptr noundef %44, i64 noundef range(i64 0, 51540394081) %48, i64 noundef 0) #14
  ret void
}